; Function Attrs: mustprogress nofree norecurse nosync nounwind willreturn memory(argmem: write) uwtable
define void @_ZN32pxrInternal_v0_24__pxrReserved__15HdSceneDelegate9GetExtentERKNS_7SdfPathE(ptr dead_on_unwind noalias writable writeonly sret(%"class.pxrInternal_v0_24__pxrReserved__::GfRange3d") align 8 captures(none) initializes((0, 48)) %0, ptr nonnull readnone align 8 captures(none) %1, ptr nonnull readnone align 4 captures(none) %2) unnamed_addr #6 align 2 {
  %4 = getelementptr inbounds nuw i8, ptr %0, i64 16
  store double 0x47EFFFFFE0000000, ptr %4, align 8
  %5 = getelementptr inbounds nuw i8, ptr %0, i64 8
  store double 0x47EFFFFFE0000000, ptr %5, align 8
  store double 0x47EFFFFFE0000000, ptr %0, align 8
  %6 = getelementptr inbounds nuw i8, ptr %0, i64 24
  %7 = getelementptr inbounds nuw i8, ptr %0, i64 40
  store double 0xC7EFFFFFE0000000, ptr %7, align 8
  %8 = getelementptr inbounds nuw i8, ptr %0, i64 32
  store double 0xC7EFFFFFE0000000, ptr %8, align 8
  store double 0xC7EFFFFFE0000000, ptr %6, align 8
  ret void
}